target datalayout = "e-m:e-p270:32:32-p271:32:32-p272:64:64-i64:64-i128:128-f80:128-n8:16:32:64-S128"
target triple = "x86_64-pc-linux-gnu"

%struct.If_Obj_t_ = type { i32, i32, i32, i32, i32, i32, ptr, ptr, ptr, float, float, float, %union.anon, ptr, %struct.If_Cut_t_ }
%union.anon = type { ptr }
%struct.If_Cut_t_ = type <{ float, float, float, float, i32, i32, i32, i64, [0 x i32] }>
%struct.Vec_Ptr_t_ = type { i32, i32, ptr }
%struct.If_Man_t_ = type { ptr, ptr, ptr, ptr, ptr, ptr, ptr, ptr, [5 x i32], i32, float, float, float, float, i32, float, i32, i32, [4 x ptr], ptr, i32, i32, i32, ptr, [3 x [32 x i32]], i32, i32, i32, ptr, ptr, ptr, ptr, ptr, ptr, ptr, i32, i32, i32, [16 x i32], i32, i32, i32, i32, ptr, ptr, ptr, ptr, ptr, i32, i32, [32 x i32], [32 x i32], i32, i32, i32, i32, ptr, [16 x ptr], [16 x ptr], [16 x ptr], [16 x ptr], [16 x ptr], [16 x ptr], [16 x ptr], ptr, ptr, ptr, ptr, [32 x i8], i32, i32, i32, [6 x i64], [2 x i32], [2 x i32], ptr, [15 x i32], ptr, ptr, ptr, [16 x i32], ptr, ptr, ptr, ptr, [2 x i32], [2 x i32], [2 x ptr], ptr }
%struct.Vec_Int_t_ = type { i32, i32, ptr }

@.str.5 = private unnamed_addr constant [56 x i8] c"If_ManNodeShapeMap2(): Computing local AIG has failed.\0A\00", align 1

; Function Attrs: inlinehint nounwind uwtable
define internal ptr @Vec_PtrEntry(ptr noundef %0, i32 noundef %1) #2 {
  %3 = alloca ptr, align 8
  %4 = alloca i32, align 4
  store ptr %0, ptr %3, align 8, !tbaa !10
  store i32 %1, ptr %4, align 4, !tbaa !23
  %5 = load ptr, ptr %3, align 8, !tbaa !10
  %6 = getelementptr inbounds nuw %struct.Vec_Ptr_t_, ptr %5, i32 0, i32 2
  %7 = load ptr, ptr %6, align 8, !tbaa !28
  %8 = load i32, ptr %4, align 4, !tbaa !23
  %9 = sext i32 %8 to i64
  %10 = getelementptr inbounds ptr, ptr %7, i64 %9
  %11 = load ptr, ptr %10, align 8, !tbaa !24
  ret ptr %11
}

; Function Attrs: inlinehint nounwind uwtable
define internal i32 @Vec_PtrSize(ptr noundef %0) #2 {
  %2 = alloca ptr, align 8
  store ptr %0, ptr %2, align 8, !tbaa !10
  %3 = load ptr, ptr %2, align 8, !tbaa !10
  %4 = getelementptr inbounds nuw %struct.Vec_Ptr_t_, ptr %3, i32 0, i32 1
  %5 = load i32, ptr %4, align 4, !tbaa !25
  ret i32 %5
}

; Function Attrs: inlinehint nounwind uwtable
define internal void @Vec_PtrClear(ptr noundef %0) #2 {
  %2 = alloca ptr, align 8
  store ptr %0, ptr %2, align 8, !tbaa !10
  %3 = load ptr, ptr %2, align 8, !tbaa !10
  %4 = getelementptr inbounds nuw %struct.Vec_Ptr_t_, ptr %3, i32 0, i32 1
  store i32 0, ptr %4, align 4, !tbaa !25
  ret void
}

; Function Attrs: inlinehint nounwind uwtable
define internal void @Vec_IntClear(ptr noundef %0) #2 {
  %2 = alloca ptr, align 8
  store ptr %0, ptr %2, align 8, !tbaa !46
  %3 = load ptr, ptr %2, align 8, !tbaa !46
  %4 = getelementptr inbounds nuw %struct.Vec_Int_t_, ptr %3, i32 0, i32 1
  store i32 0, ptr %4, align 4, !tbaa !48
  ret void
}

; Function Attrs: inlinehint nounwind uwtable
define internal void @If_CutSetDataInt(ptr noundef %0, i32 noundef %1) #2 {
  %3 = alloca ptr, align 8
  %4 = alloca i32, align 4
  store ptr %0, ptr %3, align 8, !tbaa !12
  store i32 %1, ptr %4, align 4, !tbaa !23
  %5 = load i32, ptr %4, align 4, !tbaa !23
  %6 = load ptr, ptr %3, align 8, !tbaa !12
  store i32 %5, ptr %6, align 4, !tbaa !23
  ret void
}

; Function Attrs: inlinehint nounwind uwtable
define internal ptr @If_ManObj(ptr noundef %0, i32 noundef %1) #2 {
  %3 = alloca ptr, align 8
  %4 = alloca i32, align 4
  store ptr %0, ptr %3, align 8, !tbaa !3
  store i32 %1, ptr %4, align 4, !tbaa !23
  %5 = load ptr, ptr %3, align 8, !tbaa !3
  %6 = getelementptr inbounds nuw %struct.If_Man_t_, ptr %5, i32 0, i32 5
  %7 = load ptr, ptr %6, align 8, !tbaa !45
  %8 = load i32, ptr %4, align 4, !tbaa !23
  %9 = call ptr @Vec_PtrEntry(ptr noundef %7, i32 noundef %8)
  ret ptr %9
}

; Function Attrs: inlinehint nounwind uwtable
define internal ptr @If_ObjCutBest(ptr noundef %0) #2 {
  %2 = alloca ptr, align 8
  store ptr %0, ptr %2, align 8, !tbaa !8
  %3 = load ptr, ptr %2, align 8, !tbaa !8
  %4 = getelementptr inbounds nuw %struct.If_Obj_t_, ptr %3, i32 0, i32 14
  ret ptr %4
}

; Function Attrs: nounwind uwtable
define i32 @If_ManNodeShapeMap2(ptr noundef %0, ptr noundef %1, ptr noundef %2) #0 {
  %4 = alloca i32, align 4
  %5 = alloca ptr, align 8
  %6 = alloca ptr, align 8
  %7 = alloca ptr, align 8
  %8 = alloca ptr, align 8
  %9 = alloca ptr, align 8
  %10 = alloca i32, align 4
  %11 = alloca i32, align 4
  %12 = alloca i32, align 4
  store ptr %0, ptr %5, align 8, !tbaa !3
  store ptr %1, ptr %6, align 8, !tbaa !8
  store ptr %2, ptr %7, align 8, !tbaa !46
  call void @llvm.lifetime.start.p0(i64 8, ptr %8) #9
  call void @llvm.lifetime.start.p0(i64 8, ptr %9) #9
  call void @llvm.lifetime.start.p0(i64 4, ptr %10) #9
  call void @llvm.lifetime.start.p0(i64 4, ptr %11) #9
  %13 = load ptr, ptr %6, align 8, !tbaa !8
  %14 = call ptr @If_ObjCutBest(ptr noundef %13)
  store ptr %14, ptr %8, align 8, !tbaa !12
  store i32 0, ptr %10, align 4, !tbaa !23
  br label %15

15:                                               ; preds = %41, %3
  %16 = load i32, ptr %10, align 4, !tbaa !23
  %17 = load ptr, ptr %8, align 8, !tbaa !12
  %18 = getelementptr inbounds nuw %struct.If_Cut_t_, ptr %17, i32 0, i32 7
  %19 = load i64, ptr %18, align 4
  %20 = lshr i64 %19, 24
  %21 = and i64 %20, 255
  %22 = trunc i64 %21 to i32
  %23 = icmp slt i32 %16, %22
  br i1 %23, label %24, label %34

24:                                               ; preds = %15
  %25 = load ptr, ptr %5, align 8, !tbaa !3
  %26 = load ptr, ptr %8, align 8, !tbaa !12
  %27 = getelementptr inbounds nuw %struct.If_Cut_t_, ptr %26, i32 0, i32 8
  %28 = load i32, ptr %10, align 4, !tbaa !23
  %29 = sext i32 %28 to i64
  %30 = getelementptr inbounds [0 x i32], ptr %27, i64 0, i64 %29
  %31 = load i32, ptr %30, align 4, !tbaa !23
  %32 = call ptr @If_ManObj(ptr noundef %25, i32 noundef %31)
  store ptr %32, ptr %9, align 8, !tbaa !8
  %33 = icmp ne ptr %32, null
  br label %34

34:                                               ; preds = %24, %15
  %35 = phi i1 [ false, %15 ], [ %33, %24 ]
  br i1 %35, label %36, label %44

36:                                               ; preds = %34
  %37 = load ptr, ptr %9, align 8, !tbaa !8
  %38 = call ptr @If_ObjCutBest(ptr noundef %37)
  %39 = load i32, ptr %10, align 4, !tbaa !23
  %40 = shl i32 1, %39
  call void @If_CutSetDataInt(ptr noundef %38, i32 noundef %40)
  br label %41

41:                                               ; preds = %36
  %42 = load i32, ptr %10, align 4, !tbaa !23
  %43 = add nsw i32 %42, 1
  store i32 %43, ptr %10, align 4, !tbaa !23
  br label %15, !llvm.loop !60

44:                                               ; preds = %34
  %45 = load ptr, ptr %7, align 8, !tbaa !46
  call void @Vec_IntClear(ptr noundef %45)
  %46 = load ptr, ptr %5, align 8, !tbaa !3
  %47 = getelementptr inbounds nuw %struct.If_Man_t_, ptr %46, i32 0, i32 7
  %48 = load ptr, ptr %47, align 8, !tbaa !29
  call void @Vec_PtrClear(ptr noundef %48)
  %49 = load ptr, ptr %5, align 8, !tbaa !3
  %50 = load ptr, ptr %6, align 8, !tbaa !8
  %51 = load ptr, ptr %5, align 8, !tbaa !3
  %52 = getelementptr inbounds nuw %struct.If_Man_t_, ptr %51, i32 0, i32 7
  %53 = load ptr, ptr %52, align 8, !tbaa !29
  %54 = load ptr, ptr %7, align 8, !tbaa !46
  %55 = call i32 @If_ManNodeShapeMap2_rec(ptr noundef %49, ptr noundef %50, ptr noundef %53, ptr noundef %54)
  store i32 %55, ptr %11, align 4, !tbaa !23
  %56 = load i32, ptr %11, align 4, !tbaa !23
  %57 = icmp eq i32 %56, -1
  br i1 %57, label %58, label %59

58:                                               ; preds = %44
  call void (i32, ptr, ...) @Abc_Print(i32 noundef -1, ptr noundef @.str.5)
  store i32 0, ptr %4, align 4
  store i32 1, ptr %12, align 4
  br label %109

59:                                               ; preds = %44
  store i32 0, ptr %10, align 4, !tbaa !23
  br label %60

60:                                               ; preds = %84, %59
  %61 = load i32, ptr %10, align 4, !tbaa !23
  %62 = load ptr, ptr %8, align 8, !tbaa !12
  %63 = getelementptr inbounds nuw %struct.If_Cut_t_, ptr %62, i32 0, i32 7
  %64 = load i64, ptr %63, align 4
  %65 = lshr i64 %64, 24
  %66 = and i64 %65, 255
  %67 = trunc i64 %66 to i32
  %68 = icmp slt i32 %61, %67
  br i1 %68, label %69, label %79

69:                                               ; preds = %60
  %70 = load ptr, ptr %5, align 8, !tbaa !3
  %71 = load ptr, ptr %8, align 8, !tbaa !12
  %72 = getelementptr inbounds nuw %struct.If_Cut_t_, ptr %71, i32 0, i32 8
  %73 = load i32, ptr %10, align 4, !tbaa !23
  %74 = sext i32 %73 to i64
  %75 = getelementptr inbounds [0 x i32], ptr %72, i64 0, i64 %74
  %76 = load i32, ptr %75, align 4, !tbaa !23
  %77 = call ptr @If_ManObj(ptr noundef %70, i32 noundef %76)
  store ptr %77, ptr %9, align 8, !tbaa !8
  %78 = icmp ne ptr %77, null
  br label %79

79:                                               ; preds = %69, %60
  %80 = phi i1 [ false, %60 ], [ %78, %69 ]
  br i1 %80, label %81, label %87

81:                                               ; preds = %79
  %82 = load ptr, ptr %9, align 8, !tbaa !8
  %83 = call ptr @If_ObjCutBest(ptr noundef %82)
  call void @If_CutSetDataInt(ptr noundef %83, i32 noundef 0)
  br label %84

84:                                               ; preds = %81
  %85 = load i32, ptr %10, align 4, !tbaa !23
  %86 = add nsw i32 %85, 1
  store i32 %86, ptr %10, align 4, !tbaa !23
  br label %60, !llvm.loop !61

87:                                               ; preds = %79
  store i32 0, ptr %10, align 4, !tbaa !23
  br label %88

88:                                               ; preds = %105, %87
  %89 = load i32, ptr %10, align 4, !tbaa !23
  %90 = load ptr, ptr %5, align 8, !tbaa !3
  %91 = getelementptr inbounds nuw %struct.If_Man_t_, ptr %90, i32 0, i32 7
  %92 = load ptr, ptr %91, align 8, !tbaa !29
  %93 = call i32 @Vec_PtrSize(ptr noundef %92)
  %94 = icmp slt i32 %89, %93
  br i1 %94, label %95, label %101

95:                                               ; preds = %88
  %96 = load ptr, ptr %5, align 8, !tbaa !3
  %97 = getelementptr inbounds nuw %struct.If_Man_t_, ptr %96, i32 0, i32 7
  %98 = load ptr, ptr %97, align 8, !tbaa !29
  %99 = load i32, ptr %10, align 4, !tbaa !23
  %100 = call ptr @Vec_PtrEntry(ptr noundef %98, i32 noundef %99)
  store ptr %100, ptr %8, align 8, !tbaa !12
  br label %101

101:                                              ; preds = %95, %88
  %102 = phi i1 [ false, %88 ], [ true, %95 ]
  br i1 %102, label %103, label %108

103:                                              ; preds = %101
  %104 = load ptr, ptr %8, align 8, !tbaa !12
  call void @If_CutSetDataInt(ptr noundef %104, i32 noundef 0)
  br label %105

105:                                              ; preds = %103
  %106 = load i32, ptr %10, align 4, !tbaa !23
  %107 = add nsw i32 %106, 1
  store i32 %107, ptr %10, align 4, !tbaa !23
  br label %88, !llvm.loop !62

108:                                              ; preds = %101
  store i32 1, ptr %4, align 4
  store i32 1, ptr %12, align 4
  br label %109

109:                                              ; preds = %108, %58
  call void @llvm.lifetime.end.p0(i64 4, ptr %11) #9
  call void @llvm.lifetime.end.p0(i64 4, ptr %10) #9
  call void @llvm.lifetime.end.p0(i64 8, ptr %9) #9
  call void @llvm.lifetime.end.p0(i64 8, ptr %8) #9
  %110 = load i32, ptr %4, align 4
  ret i32 %110
}