; Function Attrs: nounwind uwtable
define range(i32 0, 2) i32 @If_ManNodeShapeMap2(ptr noundef %0, ptr noundef %1, ptr noundef %2) local_unnamed_addr #0 {
  %4 = getelementptr inbounds nuw i8, ptr %1, i64 116
  %5 = getelementptr inbounds nuw i8, ptr %1, i64 108
  %6 = load i64, ptr %5, align 4
  %7 = and i64 %6, 4278190080
  %.not48 = icmp eq i64 %7, 0
  br i1 %.not48, label %.critedge, label %.lr.ph

.lr.ph:                                           ; preds = %3
  %8 = getelementptr i8, ptr %0, i64 40
  %.val39 = load ptr, ptr %8, align 8, !tbaa !38
  %9 = getelementptr i8, ptr %.val39, i64 8
  %.val39.val = load ptr, ptr %9, align 8, !tbaa !11
  br label %10

10:                                               ; preds = %.lr.ph, %16
  %indvars.iv = phi i64 [ 0, %.lr.ph ], [ %indvars.iv.next, %16 ]
  %11 = getelementptr inbounds nuw [0 x i32], ptr %4, i64 0, i64 %indvars.iv
  %12 = load i32, ptr %11, align 4, !tbaa !3
  %13 = sext i32 %12 to i64
  %14 = getelementptr inbounds ptr, ptr %.val39.val, i64 %13
  %15 = load ptr, ptr %14, align 8, !tbaa !12
  %.not = icmp eq ptr %15, null
  br i1 %.not, label %.critedge, label %16

16:                                               ; preds = %10
  %17 = getelementptr inbounds nuw i8, ptr %15, i64 80
  %18 = trunc nuw nsw i64 %indvars.iv to i32
  %19 = shl nuw i32 1, %18
  store i32 %19, ptr %17, align 4, !tbaa !3
  %indvars.iv.next = add nuw nsw i64 %indvars.iv, 1
  %20 = load i64, ptr %5, align 4
  %21 = lshr i64 %20, 24
  %22 = and i64 %21, 255
  %23 = icmp samesign ult i64 %indvars.iv.next, %22
  br i1 %23, label %10, label %.critedge, !llvm.loop !55

.critedge:                                        ; preds = %10, %16, %3
  %24 = getelementptr inbounds nuw i8, ptr %2, i64 4
  store i32 0, ptr %24, align 4, !tbaa !40
  %25 = getelementptr inbounds nuw i8, ptr %0, i64 56
  %26 = load ptr, ptr %25, align 8, !tbaa !22
  %27 = getelementptr inbounds nuw i8, ptr %26, i64 4
  store i32 0, ptr %27, align 4, !tbaa !7
  %28 = tail call i32 @If_ManNodeShapeMap2_rec(ptr noundef %0, ptr noundef nonnull %1, ptr noundef %26, ptr noundef %2)
  %29 = icmp eq i32 %28, -1
  br i1 %29, label %34, label %.preheader

.preheader:                                       ; preds = %.critedge
  %30 = load i64, ptr %5, align 4
  %31 = and i64 %30, 4278190080
  %.not49 = icmp eq i64 %31, 0
  br i1 %.not49, label %.critedge2, label %.lr.ph43

.lr.ph43:                                         ; preds = %.preheader
  %32 = getelementptr i8, ptr %0, i64 40
  %.val38 = load ptr, ptr %32, align 8, !tbaa !38
  %33 = getelementptr i8, ptr %.val38, i64 8
  %.val38.val = load ptr, ptr %33, align 8, !tbaa !11
  br label %35

34:                                               ; preds = %.critedge
  tail call void (i32, ptr, ...) @Abc_Print(i32 poison, ptr noundef nonnull @.str.5)
  br label %.critedge4

35:                                               ; preds = %.lr.ph43, %41
  %indvars.iv51 = phi i64 [ 0, %.lr.ph43 ], [ %indvars.iv.next52, %41 ]
  %36 = getelementptr inbounds nuw [0 x i32], ptr %4, i64 0, i64 %indvars.iv51
  %37 = load i32, ptr %36, align 4, !tbaa !3
  %38 = sext i32 %37 to i64
  %39 = getelementptr inbounds ptr, ptr %.val38.val, i64 %38
  %40 = load ptr, ptr %39, align 8, !tbaa !12
  %.not36 = icmp eq ptr %40, null
  br i1 %.not36, label %.critedge2, label %41

41:                                               ; preds = %35
  %42 = getelementptr inbounds nuw i8, ptr %40, i64 80
  store i32 0, ptr %42, align 4, !tbaa !3
  %indvars.iv.next52 = add nuw nsw i64 %indvars.iv51, 1
  %43 = load i64, ptr %5, align 4
  %44 = lshr i64 %43, 24
  %45 = and i64 %44, 255
  %46 = icmp samesign ult i64 %indvars.iv.next52, %45
  br i1 %46, label %35, label %.critedge2, !llvm.loop !56

.critedge2:                                       ; preds = %35, %41, %.preheader
  %47 = load ptr, ptr %25, align 8, !tbaa !22
  %48 = getelementptr i8, ptr %47, i64 4
  %.val45 = load i32, ptr %48, align 4, !tbaa !7
  %49 = icmp sgt i32 %.val45, 0
  br i1 %49, label %.lr.ph47, label %.critedge4

.lr.ph47:                                         ; preds = %.critedge2
  %50 = getelementptr i8, ptr %47, i64 8
  %.val37 = load ptr, ptr %50, align 8, !tbaa !11
  br label %51

51:                                               ; preds = %.lr.ph47, %51
  %indvars.iv54 = phi i64 [ 0, %.lr.ph47 ], [ %indvars.iv.next55, %51 ]
  %52 = getelementptr inbounds nuw ptr, ptr %.val37, i64 %indvars.iv54
  %53 = load ptr, ptr %52, align 8, !tbaa !12
  store i32 0, ptr %53, align 4, !tbaa !3
  %indvars.iv.next55 = add nuw nsw i64 %indvars.iv54, 1
  %.val = load i32, ptr %48, align 4, !tbaa !7
  %54 = sext i32 %.val to i64
  %55 = icmp slt i64 %indvars.iv.next55, %54
  br i1 %55, label %51, label %.critedge4, !llvm.loop !57

.critedge4:                                       ; preds = %51, %.critedge2, %34
  %.0 = phi i32 [ 0, %34 ], [ 1, %.critedge2 ], [ 1, %51 ]
  ret i32 %.0
}